; Function Attrs: mustprogress uwtable
define internal void @_ZN7testing12_GLOBAL__N_140ConstructorTrackerTest_CreatedAfter_Test8TestBodyEv(ptr nocapture nonnull readnone align 8 %this) unnamed_addr #3 align 2 personality ptr @__gxx_personality_v0 {
entry:
  %ct = alloca %"class.testing::exceptions_internal::ConstructorTracker", align 8
  %a = alloca %"struct.testing::(anonymous namespace)::Tracked", align 1
  %b = alloca %"struct.testing::(anonymous namespace)::Tracked", align 1
  %c = alloca %"struct.testing::(anonymous namespace)::Tracked", align 1
  %0 = load i32, ptr @_ZN7testing19exceptions_internal9countdownE, align 4
  %_M_single_bucket.i.i.i = getelementptr inbounds i8, ptr %ct, i64 48
  store ptr %_M_single_bucket.i.i.i, ptr %ct, align 8
  %_M_bucket_count.i.i.i = getelementptr inbounds i8, ptr %ct, i64 8
  store i64 1, ptr %_M_bucket_count.i.i.i, align 8
  %_M_before_begin.i.i.i = getelementptr inbounds i8, ptr %ct, i64 16
  %_M_rehash_policy.i.i.i = getelementptr inbounds i8, ptr %ct, i64 32
  call void @llvm.memset.p0.i64(ptr noundef nonnull align 8 dereferenceable(16) %_M_before_begin.i.i.i, i8 0, i64 16, i1 false)
  store float 1.000000e+00, ptr %_M_rehash_policy.i.i.i, align 8
  %_M_next_resize.i.i.i.i = getelementptr inbounds i8, ptr %ct, i64 40
  call void @llvm.memset.p0.i64(ptr noundef nonnull align 8 dereferenceable(16) %_M_next_resize.i.i.i.i, i8 0, i64 16, i1 false)
  %countdown_.i = getelementptr inbounds i8, ptr %ct, i64 56
  store i32 %0, ptr %countdown_.i, align 8
  store ptr %ct, ptr @_ZN7testing19exceptions_internal18ConstructorTracker25current_tracker_instance_E, align 8
  invoke fastcc void @_ZN7testing12_GLOBAL__N_17TrackedC2Ev(ptr noundef nonnull align 1 dereferenceable(1) %a)
          to label %invoke.cont unwind label %lpad

invoke.cont:                                      ; preds = %entry
  invoke fastcc void @_ZN7testing12_GLOBAL__N_17TrackedC2Ev(ptr noundef nonnull align 1 dereferenceable(1) %b)
          to label %invoke.cont3 unwind label %lpad2

invoke.cont3:                                     ; preds = %invoke.cont
  invoke fastcc void @_ZN7testing12_GLOBAL__N_17TrackedC2Ev(ptr noundef nonnull align 1 dereferenceable(1) %c)
          to label %invoke.cont5 unwind label %lpad4

invoke.cont5:                                     ; preds = %invoke.cont3
  invoke void @_ZN7testing19exceptions_internal18ConstructorTracker16ObjectDestructedEPv(ptr noundef nonnull %c)
          to label %_ZN7testing12_GLOBAL__N_17TrackedD2Ev.exit unwind label %terminate.lpad.i.i

terminate.lpad.i.i:                               ; preds = %invoke.cont5
  %1 = landingpad { ptr, i32 }
          catch ptr null
  %2 = extractvalue { ptr, i32 } %1, 0
  call void @__clang_call_terminate(ptr %2) #26
  unreachable

_ZN7testing12_GLOBAL__N_17TrackedD2Ev.exit:       ; preds = %invoke.cont5
  invoke void @_ZN7testing19exceptions_internal18ConstructorTracker16ObjectDestructedEPv(ptr noundef nonnull %b)
          to label %_ZN7testing12_GLOBAL__N_17TrackedD2Ev.exit4 unwind label %terminate.lpad.i.i3

terminate.lpad.i.i3:                              ; preds = %_ZN7testing12_GLOBAL__N_17TrackedD2Ev.exit
  %3 = landingpad { ptr, i32 }
          catch ptr null
  %4 = extractvalue { ptr, i32 } %3, 0
  call void @__clang_call_terminate(ptr %4) #26
  unreachable

_ZN7testing12_GLOBAL__N_17TrackedD2Ev.exit4:      ; preds = %_ZN7testing12_GLOBAL__N_17TrackedD2Ev.exit
  invoke void @_ZN7testing19exceptions_internal18ConstructorTracker16ObjectDestructedEPv(ptr noundef nonnull %a)
          to label %_ZN7testing12_GLOBAL__N_17TrackedD2Ev.exit6 unwind label %terminate.lpad.i.i5

terminate.lpad.i.i5:                              ; preds = %_ZN7testing12_GLOBAL__N_17TrackedD2Ev.exit4
  %5 = landingpad { ptr, i32 }
          catch ptr null
  %6 = extractvalue { ptr, i32 } %5, 0
  call void @__clang_call_terminate(ptr %6) #26
  unreachable

_ZN7testing12_GLOBAL__N_17TrackedD2Ev.exit6:      ; preds = %_ZN7testing12_GLOBAL__N_17TrackedD2Ev.exit4
  call void @_ZN7testing19exceptions_internal18ConstructorTrackerD2Ev(ptr noundef nonnull align 8 dereferenceable(60) %ct) #23
  ret void

lpad:                                             ; preds = %entry
  %7 = landingpad { ptr, i32 }
          cleanup
  br label %ehcleanup6

lpad2:                                            ; preds = %invoke.cont
  %8 = landingpad { ptr, i32 }
          cleanup
  br label %ehcleanup

lpad4:                                            ; preds = %invoke.cont3
  %9 = landingpad { ptr, i32 }
          cleanup
  invoke void @_ZN7testing19exceptions_internal18ConstructorTracker16ObjectDestructedEPv(ptr noundef nonnull %b)
          to label %ehcleanup unwind label %terminate.lpad.i.i7

terminate.lpad.i.i7:                              ; preds = %lpad4
  %10 = landingpad { ptr, i32 }
          catch ptr null
  %11 = extractvalue { ptr, i32 } %10, 0
  call void @__clang_call_terminate(ptr %11) #26
  unreachable

ehcleanup:                                        ; preds = %lpad4, %lpad2
  %.pn = phi { ptr, i32 } [ %8, %lpad2 ], [ %9, %lpad4 ]
  invoke void @_ZN7testing19exceptions_internal18ConstructorTracker16ObjectDestructedEPv(ptr noundef nonnull %a)
          to label %ehcleanup6 unwind label %terminate.lpad.i.i9

terminate.lpad.i.i9:                              ; preds = %ehcleanup
  %12 = landingpad { ptr, i32 }
          catch ptr null
  %13 = extractvalue { ptr, i32 } %12, 0
  call void @__clang_call_terminate(ptr %13) #26
  unreachable

ehcleanup6:                                       ; preds = %ehcleanup, %lpad
  %.pn.pn = phi { ptr, i32 } [ %7, %lpad ], [ %.pn, %ehcleanup ]
  call void @_ZN7testing19exceptions_internal18ConstructorTrackerD2Ev(ptr noundef nonnull align 8 dereferenceable(60) %ct) #23
  resume { ptr, i32 } %.pn.pn
}